target datalayout = "e-m:e-p270:32:32-p271:32:32-p272:64:64-i64:64-i128:128-f80:128-n8:16:32:64-S128"
target triple = "x86_64-pc-linux-gnu"

@_ZN6icu_77L23gTemporalLeapMonthCodesE = internal constant [13 x ptr] [ptr @.str.3, ptr @.str.4, ptr @.str.5, ptr @.str.6, ptr @.str.7, ptr @.str.8, ptr @.str.9, ptr @.str.10, ptr @.str.11, ptr @.str.12, ptr @.str.13, ptr @.str.14, ptr null], align 16

; Function Attrs: inlinehint mustprogress nounwind uwtable
define internal noundef signext i8 @_ZL9U_FAILURE10UErrorCode(i32 noundef %0) #4 {
  %2 = alloca i32, align 4
  store i32 %0, ptr %2, align 4, !tbaa !30
  %3 = load i32, ptr %2, align 4, !tbaa !30
  %4 = icmp sgt i32 %3, 0
  %5 = zext i1 %4 to i8
  ret i8 %5
}

; Function Attrs: mustprogress uwtable
define void @_ZN6icu_7715ChineseCalendar20setTemporalMonthCodeEPKcR10UErrorCode(ptr noundef nonnull align 8 dereferenceable(193) %0, ptr noundef %1, ptr noundef nonnull align 4 dereferenceable(4) %2) unnamed_addr #0 align 2 {
  %4 = alloca ptr, align 8
  %5 = alloca ptr, align 8
  %6 = alloca ptr, align 8
  %7 = alloca i32, align 4
  %8 = alloca i32, align 4
  %9 = alloca i32, align 4
  store ptr %0, ptr %4, align 8, !tbaa !3
  store ptr %1, ptr %5, align 8, !tbaa !64
  store ptr %2, ptr %6, align 8, !tbaa !10
  %10 = load ptr, ptr %4, align 8
  %11 = load ptr, ptr %6, align 8, !tbaa !10
  %12 = load i32, ptr %11, align 4, !tbaa !30
  %13 = call noundef signext i8 @_ZL9U_FAILURE10UErrorCode(i32 noundef %12)
  %14 = icmp ne i8 %13, 0
  br i1 %14, label %15, label %16

15:                                               ; preds = %3
  br label %65

16:                                               ; preds = %3
  call void @llvm.lifetime.start.p0(i64 4, ptr %7) #13
  %17 = load ptr, ptr %5, align 8, !tbaa !64
  %18 = call i64 @strlen(ptr noundef %17) #14
  %19 = trunc i64 %18 to i32
  store i32 %19, ptr %7, align 4, !tbaa !29
  %20 = load i32, ptr %7, align 4, !tbaa !29
  %21 = icmp ne i32 %20, 4
  br i1 %21, label %34, label %22

22:                                               ; preds = %16
  %23 = load ptr, ptr %5, align 8, !tbaa !64
  %24 = getelementptr inbounds i8, ptr %23, i64 0
  %25 = load i8, ptr %24, align 1, !tbaa !38
  %26 = sext i8 %25 to i32
  %27 = icmp ne i32 %26, 77
  br i1 %27, label %34, label %28

28:                                               ; preds = %22
  %29 = load ptr, ptr %5, align 8, !tbaa !64
  %30 = getelementptr inbounds i8, ptr %29, i64 3
  %31 = load i8, ptr %30, align 1, !tbaa !38
  %32 = sext i8 %31 to i32
  %33 = icmp ne i32 %32, 76
  br i1 %33, label %34, label %37

34:                                               ; preds = %28, %22, %16
  call void @_ZN6icu_778Calendar3setE19UCalendarDateFieldsi(ptr noundef nonnull align 8 dereferenceable(192) %10, i32 noundef 22, i32 noundef 0)
  %35 = load ptr, ptr %5, align 8, !tbaa !64
  %36 = load ptr, ptr %6, align 8, !tbaa !10
  call void @_ZN6icu_778Calendar20setTemporalMonthCodeEPKcR10UErrorCode(ptr noundef nonnull align 8 dereferenceable(192) %10, ptr noundef %35, ptr noundef nonnull align 4 dereferenceable(4) %36)
  store i32 1, ptr %8, align 4
  br label %63

37:                                               ; preds = %28
  call void @llvm.lifetime.start.p0(i64 4, ptr %9) #13
  store i32 0, ptr %9, align 4, !tbaa !29
  br label %38

38:                                               ; preds = %56, %37
  %39 = load i32, ptr %9, align 4, !tbaa !29
  %40 = sext i32 %39 to i64
  %41 = getelementptr inbounds [13 x ptr], ptr @_ZN6icu_77L23gTemporalLeapMonthCodesE, i64 0, i64 %40
  %42 = load ptr, ptr %41, align 8, !tbaa !64
  %43 = icmp ne ptr %42, null
  br i1 %43, label %45, label %44

44:                                               ; preds = %38
  store i32 2, ptr %8, align 4
  br label %59

45:                                               ; preds = %38
  %46 = load ptr, ptr %5, align 8, !tbaa !64
  %47 = load i32, ptr %9, align 4, !tbaa !29
  %48 = sext i32 %47 to i64
  %49 = getelementptr inbounds [13 x ptr], ptr @_ZN6icu_77L23gTemporalLeapMonthCodesE, i64 0, i64 %48
  %50 = load ptr, ptr %49, align 8, !tbaa !64
  %51 = call i32 @strcmp(ptr noundef %46, ptr noundef %50) #14
  %52 = icmp eq i32 %51, 0
  br i1 %52, label %53, label %55

53:                                               ; preds = %45
  %54 = load i32, ptr %9, align 4, !tbaa !29
  call void @_ZN6icu_778Calendar3setE19UCalendarDateFieldsi(ptr noundef nonnull align 8 dereferenceable(192) %10, i32 noundef 2, i32 noundef %54)
  call void @_ZN6icu_778Calendar3setE19UCalendarDateFieldsi(ptr noundef nonnull align 8 dereferenceable(192) %10, i32 noundef 22, i32 noundef 1)
  store i32 1, ptr %8, align 4
  br label %59

55:                                               ; preds = %45
  br label %56

56:                                               ; preds = %55
  %57 = load i32, ptr %9, align 4, !tbaa !29
  %58 = add nsw i32 %57, 1
  store i32 %58, ptr %9, align 4, !tbaa !29
  br label %38, !llvm.loop !66

59:                                               ; preds = %53, %44
  call void @llvm.lifetime.end.p0(i64 4, ptr %9) #13
  %60 = load i32, ptr %8, align 4
  switch i32 %60, label %63 [
    i32 2, label %61
  ]

61:                                               ; preds = %59
  %62 = load ptr, ptr %6, align 8, !tbaa !10
  store i32 1, ptr %62, align 4, !tbaa !30
  store i32 0, ptr %8, align 4
  br label %63

63:                                               ; preds = %61, %59, %34
  call void @llvm.lifetime.end.p0(i64 4, ptr %7) #13
  %64 = load i32, ptr %8, align 4
  switch i32 %64, label %66 [
    i32 0, label %65
    i32 1, label %65
  ]

65:                                               ; preds = %15, %63, %63
  ret void

66:                                               ; preds = %63
  unreachable
}