; Function Attrs: mustprogress uwtable
define void @_ZN6icu_7715ChineseCalendar20setTemporalMonthCodeEPKcR10UErrorCode(ptr noundef nonnull align 8 dereferenceable(193) %0, ptr noundef %1, ptr noundef nonnull align 4 dereferenceable(4) %2) unnamed_addr #0 align 2 {
  %4 = load i32, ptr %2, align 4, !tbaa !21
  %5 = icmp slt i32 %4, 1
  br i1 %5, label %6, label %22

6:                                                ; preds = %3
  %7 = tail call i64 @strlen(ptr noundef nonnull dereferenceable(1) %1) #9
  %8 = and i64 %7, 4294967295
  %.not16 = icmp eq i64 %8, 4
  br i1 %.not16, label %9, label %14

9:                                                ; preds = %6
  %10 = load i8, ptr %1, align 1, !tbaa !23
  %.not17 = icmp eq i8 %10, 77
  br i1 %.not17, label %11, label %14

11:                                               ; preds = %9
  %12 = getelementptr inbounds nuw i8, ptr %1, i64 3
  %13 = load i8, ptr %12, align 1, !tbaa !23
  %.not18 = icmp eq i8 %13, 76
  br i1 %.not18, label %.preheader, label %14

14:                                               ; preds = %11, %9, %6
  tail call void @_ZN6icu_778Calendar3setE19UCalendarDateFieldsi(ptr noundef nonnull align 8 dereferenceable(192) %0, i32 noundef 22, i32 noundef 0)
  tail call void @_ZN6icu_778Calendar20setTemporalMonthCodeEPKcR10UErrorCode(ptr noundef nonnull align 8 dereferenceable(192) %0, ptr noundef nonnull %1, ptr noundef nonnull align 4 dereferenceable(4) %2)
  br label %22

.preheader:                                       ; preds = %11, %21
  %indvars.iv = phi i64 [ %indvars.iv.next, %21 ], [ 0, %11 ]
  %15 = getelementptr inbounds nuw [13 x ptr], ptr @_ZN6icu_77L23gTemporalLeapMonthCodesE, i64 0, i64 %indvars.iv
  %16 = load ptr, ptr %15, align 8, !tbaa !35
  %17 = tail call i32 @strcmp(ptr noundef nonnull dereferenceable(1) %1, ptr noundef nonnull dereferenceable(1) %16) #9
  %18 = icmp eq i32 %17, 0
  br i1 %18, label %19, label %21

19:                                               ; preds = %.preheader
  %20 = trunc nuw nsw i64 %indvars.iv to i32
  tail call void @_ZN6icu_778Calendar3setE19UCalendarDateFieldsi(ptr noundef nonnull align 8 dereferenceable(192) %0, i32 noundef 2, i32 noundef %20)
  tail call void @_ZN6icu_778Calendar3setE19UCalendarDateFieldsi(ptr noundef nonnull align 8 dereferenceable(192) %0, i32 noundef 22, i32 noundef 1)
  br label %22

21:                                               ; preds = %.preheader
  %indvars.iv.next = add nuw nsw i64 %indvars.iv, 1
  %.not19 = icmp eq i64 %indvars.iv.next, 12
  br i1 %.not19, label %.critedge, label %.preheader, !llvm.loop !37

.critedge:                                        ; preds = %21
  store i32 1, ptr %2, align 4, !tbaa !21
  br label %22

22:                                               ; preds = %19, %14, %.critedge, %3
  ret void
}